target datalayout = "e-m:e-p270:32:32-p271:32:32-p272:64:64-i64:64-i128:128-f80:128-n8:16:32:64-S128"
target triple = "x86_64-pc-linux-gnu"

@_ZZNK4llvm20RISCVGenRegisterInfo24composeSubRegIndicesImplEjjE6RowMap = internal constant [52 x i8] c"\00\00\00\00\00\00\00\00\00\00\00\00\00\01\02\03\00\02\00\00\00\04\04\01\00\00\00\00\04\04\04\04\01\01\01\01\05\05\05\05\02\02\02\06\06\03\00\00\00\01\01\02", align 16

; Function Attrs: mustprogress nounwind uwtable
define dso_local noundef i32 @_ZNK4llvm20RISCVGenRegisterInfo24composeSubRegIndicesImplEjj(ptr noundef nonnull align 8 dereferenceable(308) %0, i32 noundef %1, i32 noundef %2) unnamed_addr #0 align 2 {
  %4 = alloca ptr, align 8
  %5 = alloca i32, align 4
  %6 = alloca i32, align 4
  store ptr %0, ptr %4, align 8
  store i32 %1, ptr %5, align 4
  store i32 %2, ptr %6, align 4
  %7 = load i32, ptr %5, align 4
  %8 = add i32 %7, -1
  store i32 %8, ptr %5, align 4
  %9 = load i32, ptr %6, align 4
  %10 = add i32 %9, -1
  store i32 %10, ptr %6, align 4
  %11 = load i32, ptr %5, align 4
  %12 = zext i32 %11 to i64
  %13 = getelementptr inbounds [52 x i8], ptr @_ZZNK4llvm20RISCVGenRegisterInfo24composeSubRegIndicesImplEjjE6RowMap, i64 0, i64 %12
  %14 = load i8, ptr %13, align 1
  %15 = zext i8 %14 to i64
  %16 = getelementptr inbounds [7 x [52 x i8]], ptr @_ZZNK4llvm20RISCVGenRegisterInfo24composeSubRegIndicesImplEjjE4Rows, i64 0, i64 %15
  %17 = load i32, ptr %6, align 4
  %18 = zext i32 %17 to i64
  %19 = getelementptr inbounds [52 x i8], ptr %16, i64 0, i64 %18
  %20 = load i8, ptr %19, align 1
  %21 = zext i8 %20 to i32
  ret i32 %21
}