; Function Attrs: mustprogress nofree norecurse nosync nounwind willreturn memory(none) uwtable
define dso_local noundef range(i32 0, 256) i32 @_ZNK4llvm20RISCVGenRegisterInfo24composeSubRegIndicesImplEjj(ptr nocapture nonnull readnone align 8 %0, i32 noundef %1, i32 noundef %2) unnamed_addr #0 align 2 {
  %4 = add i32 %1, -1
  %5 = add i32 %2, -1
  %6 = zext i32 %4 to i64
  %7 = getelementptr inbounds [52 x i8], ptr @_ZZNK4llvm20RISCVGenRegisterInfo24composeSubRegIndicesImplEjjE6RowMap, i64 0, i64 %6
  %8 = load i8, ptr %7, align 1
  %9 = zext i8 %8 to i64
  %10 = zext i32 %5 to i64
  %11 = getelementptr inbounds [7 x [52 x i8]], ptr @_ZZNK4llvm20RISCVGenRegisterInfo24composeSubRegIndicesImplEjjE4Rows, i64 0, i64 %9, i64 %10
  %12 = load i8, ptr %11, align 1
  %13 = zext i8 %12 to i32
  ret i32 %13
}